target datalayout = "e-m:e-p270:32:32-p271:32:32-p272:64:64-i64:64-i128:128-f80:128-n8:16:32:64-S128"
target triple = "x86_64-pc-linux-gnu"

@.str.17 = private unnamed_addr constant [52 x i8] c"json: no parent object specified to cli_jsondouble\0A\00", align 1
@.str.18 = private unnamed_addr constant [54 x i8] c"json: null string specified as key to cli_jsondouble\0A\00", align 1
@.str.19 = private unnamed_addr constant [41 x i8] c"json: no memory for json double object.\0A\00", align 1

; Function Attrs: nounwind uwtable
define i32 @cli_jsondouble(ptr noundef %0, ptr noundef %1, double noundef %2) #0 {
  %4 = alloca i32, align 4
  %5 = alloca ptr, align 8
  %6 = alloca ptr, align 8
  %7 = alloca double, align 8
  %8 = alloca i32, align 4
  %9 = alloca ptr, align 8
  store ptr %0, ptr %5, align 8
  store ptr %1, ptr %6, align 8
  store double %2, ptr %7, align 8
  %10 = load ptr, ptr %5, align 8
  %11 = icmp eq ptr null, %10
  br i1 %11, label %12, label %13

12:                                               ; preds = %3
  call void (ptr, ...) @cli_dbgmsg(ptr noundef @.str.17)
  store i32 2, ptr %4, align 4
  br label %51

13:                                               ; preds = %3
  %14 = load ptr, ptr %5, align 8
  %15 = call i32 @json_object_get_type(ptr noundef %14)
  store i32 %15, ptr %8, align 4
  %16 = load i32, ptr %8, align 4
  %17 = icmp eq i32 %16, 4
  br i1 %17, label %18, label %23

18:                                               ; preds = %13
  %19 = load ptr, ptr %6, align 8
  %20 = icmp eq ptr null, %19
  br i1 %20, label %21, label %22

21:                                               ; preds = %18
  call void (ptr, ...) @cli_dbgmsg(ptr noundef @.str.18)
  store i32 2, ptr %4, align 4
  br label %51

22:                                               ; preds = %18
  br label %28

23:                                               ; preds = %13
  %24 = load i32, ptr %8, align 4
  %25 = icmp ne i32 %24, 5
  br i1 %25, label %26, label %27

26:                                               ; preds = %23
  store i32 3, ptr %4, align 4
  br label %51

27:                                               ; preds = %23
  br label %28

28:                                               ; preds = %27, %22
  %29 = load double, ptr %7, align 8
  %30 = call ptr @json_object_new_double(double noundef %29)
  store ptr %30, ptr %9, align 8
  %31 = load ptr, ptr %9, align 8
  %32 = icmp eq ptr null, %31
  br i1 %32, label %33, label %34

33:                                               ; preds = %28
  call void (ptr, ...) @cli_errmsg(ptr noundef @.str.19)
  store i32 20, ptr %4, align 4
  br label %51

34:                                               ; preds = %28
  %35 = load i32, ptr %8, align 4
  %36 = icmp eq i32 %35, 4
  br i1 %36, label %37, label %42

37:                                               ; preds = %34
  %38 = load ptr, ptr %5, align 8
  %39 = load ptr, ptr %6, align 8
  %40 = load ptr, ptr %9, align 8
  %41 = call i32 @json_object_object_add(ptr noundef %38, ptr noundef %39, ptr noundef %40)
  br label %50

42:                                               ; preds = %34
  %43 = load i32, ptr %8, align 4
  %44 = icmp eq i32 %43, 5
  br i1 %44, label %45, label %49

45:                                               ; preds = %42
  %46 = load ptr, ptr %5, align 8
  %47 = load ptr, ptr %9, align 8
  %48 = call i32 @json_object_array_add(ptr noundef %46, ptr noundef %47)
  br label %49

49:                                               ; preds = %45, %42
  br label %50

50:                                               ; preds = %49, %37
  store i32 0, ptr %4, align 4
  br label %51

51:                                               ; preds = %50, %33, %26, %21, %12
  %52 = load i32, ptr %4, align 4
  ret i32 %52
}